; Function Attrs: nounwind uwtable
define dso_local void @trigger_primary_ctld_res_ctrl() local_unnamed_addr #0 {
  %1 = tail call i32 @pthread_mutex_lock(ptr noundef nonnull @trigger_mutex) #12
  %.not = icmp eq i32 %1, 0
  br i1 %.not, label %4, label %2

2:                                                ; preds = %0
  %3 = tail call ptr @__errno_location() #13
  store i32 %1, ptr %3, align 4
  tail call void (ptr, ...) @fatal_abort(ptr noundef nonnull @.str.2, ptr noundef nonnull @__func__.trigger_primary_ctld_res_ctrl) #14
  unreachable

4:                                                ; preds = %0
  store i1 true, ptr @trigger_pri_ctld_res_ctrl, align 1
  %5 = tail call i32 @pthread_mutex_unlock(ptr noundef nonnull @trigger_mutex) #12
  %.not5 = icmp eq i32 %5, 0
  br i1 %.not5, label %8, label %6

6:                                                ; preds = %4
  %7 = tail call ptr @__errno_location() #13
  store i32 %5, ptr %7, align 4
  tail call void (ptr, ...) @fatal_abort(ptr noundef nonnull @.str.3, ptr noundef nonnull @__func__.trigger_primary_ctld_res_ctrl) #14
  unreachable

8:                                                ; preds = %4
  ret void
}